; Function Attrs: null_pointer_is_valid sspstrong uwtable
define internal noalias ptr @ipv6_build_filter(ptr noundef %0, ptr readnone captures(none) %1) #0 {
  %3 = getelementptr inbounds nuw i8, ptr %0, i64 408
  %4 = load ptr, ptr %3, align 8
  %5 = getelementptr inbounds nuw i8, ptr %0, i64 160
  %6 = tail call ptr @address_to_str(ptr noundef %4, ptr noundef nonnull %5)
  %7 = load ptr, ptr %3, align 8
  %8 = getelementptr inbounds nuw i8, ptr %0, i64 184
  %9 = tail call ptr @address_to_str(ptr noundef %7, ptr noundef nonnull %8)
  %10 = tail call noalias ptr (ptr, ptr, ...) @wmem_strdup_printf(ptr noundef null, ptr noundef nonnull @.str.892, ptr noundef %6, ptr noundef %9)
  ret ptr %10
}